; Function Attrs: nounwind uwtable
define internal i32 @ui_close(ptr noundef %0) #0 {
  %2 = load ptr, ptr @ui_base_method, align 8, !tbaa !4
  %3 = tail call ptr @UI_method_get_closer(ptr noundef %2) #5
  %.not = icmp eq ptr %3, null
  br i1 %.not, label %6, label %4

4:                                                ; preds = %1
  %5 = tail call i32 %3(ptr noundef %0) #5
  br label %6

6:                                                ; preds = %1, %4
  %.0 = phi i32 [ %5, %4 ], [ 1, %1 ]
  ret i32 %.0
}